target datalayout = "e-m:e-p270:32:32-p271:32:32-p272:64:64-i64:64-i128:128-f80:128-n8:16:32:64-S128"
target triple = "x86_64-pc-linux-gnu"

%struct.WebPIDecoder = type { i32, %struct.WebPDecParams, i32, ptr, %struct.VP8Io, %struct.MemBuffer, %struct.WebPDecBuffer, ptr, i64, i32 }
%struct.WebPDecParams = type { ptr, ptr, ptr, ptr, i32, ptr, ptr, ptr, ptr, ptr, ptr, ptr, ptr, ptr }
%struct.VP8Io = type { i32, i32, i32, i32, i32, ptr, ptr, ptr, i32, i32, ptr, ptr, ptr, ptr, i32, i64, ptr, i32, i32, i32, i32, i32, i32, i32, i32, i32, ptr }
%struct.MemBuffer = type { i32, i64, i64, i64, ptr, i64, ptr }
%struct.WebPDecBuffer = type { i32, i32, i32, i32, %union.anon, [4 x i32], ptr }
%union.anon = type { %struct.WebPYUVABuffer }
%struct.WebPYUVABuffer = type { ptr, ptr, ptr, ptr, i32, i32, i32, i32, i64, i64, i64, i64 }

; Function Attrs: nounwind uwtable
define internal ptr @GetOutputBuffer(ptr noundef %0) #0 {
  %2 = alloca ptr, align 8
  %3 = alloca ptr, align 8
  store ptr %0, ptr %3, align 8, !tbaa !10
  %4 = load ptr, ptr %3, align 8, !tbaa !10
  %5 = icmp eq ptr %4, null
  br i1 %5, label %11, label %6

6:                                                ; preds = %1
  %7 = load ptr, ptr %3, align 8, !tbaa !10
  %8 = getelementptr inbounds nuw %struct.WebPIDecoder, ptr %7, i32 0, i32 3
  %9 = load ptr, ptr %8, align 8, !tbaa !33
  %10 = icmp eq ptr %9, null
  br i1 %10, label %11, label %12

11:                                               ; preds = %6, %1
  store ptr null, ptr %2, align 8
  br label %29

12:                                               ; preds = %6
  %13 = load ptr, ptr %3, align 8, !tbaa !10
  %14 = getelementptr inbounds nuw %struct.WebPIDecoder, ptr %13, i32 0, i32 0
  %15 = load i32, ptr %14, align 8, !tbaa !12
  %16 = icmp ule i32 %15, 2
  br i1 %16, label %17, label %18

17:                                               ; preds = %12
  store ptr null, ptr %2, align 8
  br label %29

18:                                               ; preds = %12
  %19 = load ptr, ptr %3, align 8, !tbaa !10
  %20 = getelementptr inbounds nuw %struct.WebPIDecoder, ptr %19, i32 0, i32 7
  %21 = load ptr, ptr %20, align 8, !tbaa !26
  %22 = icmp ne ptr %21, null
  br i1 %22, label %23, label %24

23:                                               ; preds = %18
  store ptr null, ptr %2, align 8
  br label %29

24:                                               ; preds = %18
  %25 = load ptr, ptr %3, align 8, !tbaa !10
  %26 = getelementptr inbounds nuw %struct.WebPIDecoder, ptr %25, i32 0, i32 1
  %27 = getelementptr inbounds nuw %struct.WebPDecParams, ptr %26, i32 0, i32 0
  %28 = load ptr, ptr %27, align 8, !tbaa !25
  store ptr %28, ptr %2, align 8
  br label %29

29:                                               ; preds = %24, %23, %17, %11
  %30 = load ptr, ptr %2, align 8
  ret ptr %30
}

; Function Attrs: nounwind uwtable
define ptr @WebPIDecodedArea(ptr noundef %0, ptr noundef %1, ptr noundef %2, ptr noundef %3, ptr noundef %4) #0 {
  %6 = alloca ptr, align 8
  %7 = alloca ptr, align 8
  %8 = alloca ptr, align 8
  %9 = alloca ptr, align 8
  %10 = alloca ptr, align 8
  %11 = alloca ptr, align 8
  store ptr %0, ptr %6, align 8, !tbaa !10
  store ptr %1, ptr %7, align 8, !tbaa !61
  store ptr %2, ptr %8, align 8, !tbaa !61
  store ptr %3, ptr %9, align 8, !tbaa !61
  store ptr %4, ptr %10, align 8, !tbaa !61
  call void @llvm.lifetime.start.p0(i64 8, ptr %11) #6
  %12 = load ptr, ptr %6, align 8, !tbaa !10
  %13 = call ptr @GetOutputBuffer(ptr noundef %12)
  store ptr %13, ptr %11, align 8, !tbaa !3
  %14 = load ptr, ptr %7, align 8, !tbaa !61
  %15 = icmp ne ptr %14, null
  br i1 %15, label %16, label %18

16:                                               ; preds = %5
  %17 = load ptr, ptr %7, align 8, !tbaa !61
  store i32 0, ptr %17, align 4, !tbaa !39
  br label %18

18:                                               ; preds = %16, %5
  %19 = load ptr, ptr %8, align 8, !tbaa !61
  %20 = icmp ne ptr %19, null
  br i1 %20, label %21, label %23

21:                                               ; preds = %18
  %22 = load ptr, ptr %8, align 8, !tbaa !61
  store i32 0, ptr %22, align 4, !tbaa !39
  br label %23

23:                                               ; preds = %21, %18
  %24 = load ptr, ptr %11, align 8, !tbaa !3
  %25 = icmp ne ptr %24, null
  br i1 %25, label %26, label %44

26:                                               ; preds = %23
  %27 = load ptr, ptr %9, align 8, !tbaa !61
  %28 = icmp ne ptr %27, null
  br i1 %28, label %29, label %34

29:                                               ; preds = %26
  %30 = load ptr, ptr %11, align 8, !tbaa !3
  %31 = getelementptr inbounds nuw %struct.WebPDecBuffer, ptr %30, i32 0, i32 1
  %32 = load i32, ptr %31, align 4, !tbaa !63
  %33 = load ptr, ptr %9, align 8, !tbaa !61
  store i32 %32, ptr %33, align 4, !tbaa !39
  br label %34

34:                                               ; preds = %29, %26
  %35 = load ptr, ptr %10, align 8, !tbaa !61
  %36 = icmp ne ptr %35, null
  br i1 %36, label %37, label %43

37:                                               ; preds = %34
  %38 = load ptr, ptr %6, align 8, !tbaa !10
  %39 = getelementptr inbounds nuw %struct.WebPIDecoder, ptr %38, i32 0, i32 1
  %40 = getelementptr inbounds nuw %struct.WebPDecParams, ptr %39, i32 0, i32 4
  %41 = load i32, ptr %40, align 8, !tbaa !64
  %42 = load ptr, ptr %10, align 8, !tbaa !61
  store i32 %41, ptr %42, align 4, !tbaa !39
  br label %43

43:                                               ; preds = %37, %34
  br label %55

44:                                               ; preds = %23
  %45 = load ptr, ptr %9, align 8, !tbaa !61
  %46 = icmp ne ptr %45, null
  br i1 %46, label %47, label %49

47:                                               ; preds = %44
  %48 = load ptr, ptr %9, align 8, !tbaa !61
  store i32 0, ptr %48, align 4, !tbaa !39
  br label %49

49:                                               ; preds = %47, %44
  %50 = load ptr, ptr %10, align 8, !tbaa !61
  %51 = icmp ne ptr %50, null
  br i1 %51, label %52, label %54

52:                                               ; preds = %49
  %53 = load ptr, ptr %10, align 8, !tbaa !61
  store i32 0, ptr %53, align 4, !tbaa !39
  br label %54

54:                                               ; preds = %52, %49
  br label %55

55:                                               ; preds = %54, %43
  %56 = load ptr, ptr %11, align 8, !tbaa !3
  call void @llvm.lifetime.end.p0(i64 8, ptr %11) #6
  ret ptr %56
}