; Function Attrs: mustprogress nofree norecurse nosync nounwind willreturn memory(read, argmem: readwrite, inaccessiblemem: none) uwtable
define ptr @WebPIDecodedArea(ptr noundef readonly captures(address_is_null) %0, ptr noundef writeonly captures(address_is_null) %1, ptr noundef writeonly captures(address_is_null) %2, ptr noundef writeonly captures(address_is_null) %3, ptr noundef writeonly captures(address_is_null) %4) local_unnamed_addr #4 {
  %6 = icmp eq ptr %0, null
  br i1 %6, label %GetOutputBuffer.exit, label %7

7:                                                ; preds = %5
  %8 = getelementptr inbounds nuw i8, ptr %0, i64 128
  %9 = load ptr, ptr %8, align 8, !tbaa !25
  %10 = icmp eq ptr %9, null
  br i1 %10, label %GetOutputBuffer.exit, label %11

11:                                               ; preds = %7
  %12 = load i32, ptr %0, align 8, !tbaa !3
  %13 = icmp ult i32 %12, 3
  br i1 %13, label %GetOutputBuffer.exit, label %14

14:                                               ; preds = %11
  %15 = getelementptr inbounds nuw i8, ptr %0, i64 472
  %16 = load ptr, ptr %15, align 8, !tbaa !22
  %.not.i = icmp eq ptr %16, null
  br i1 %.not.i, label %17, label %GetOutputBuffer.exit

17:                                               ; preds = %14
  %18 = getelementptr inbounds nuw i8, ptr %0, i64 8
  %19 = load ptr, ptr %18, align 8, !tbaa !21
  br label %GetOutputBuffer.exit

GetOutputBuffer.exit:                             ; preds = %5, %7, %11, %14, %17
  %.0.i = phi ptr [ %19, %17 ], [ null, %7 ], [ null, %5 ], [ null, %11 ], [ null, %14 ]
  %.not = icmp eq ptr %1, null
  br i1 %.not, label %21, label %20

20:                                               ; preds = %GetOutputBuffer.exit
  store i32 0, ptr %1, align 4, !tbaa !82
  br label %21

21:                                               ; preds = %20, %GetOutputBuffer.exit
  %.not22 = icmp eq ptr %2, null
  br i1 %.not22, label %23, label %22

22:                                               ; preds = %21
  store i32 0, ptr %2, align 4, !tbaa !82
  br label %23

23:                                               ; preds = %22, %21
  %.not23 = icmp eq ptr %.0.i, null
  %.not24 = icmp eq ptr %3, null
  br i1 %.not23, label %32, label %24

24:                                               ; preds = %23
  br i1 %.not24, label %28, label %25

25:                                               ; preds = %24
  %26 = getelementptr inbounds nuw i8, ptr %.0.i, i64 4
  %27 = load i32, ptr %26, align 4, !tbaa !104
  store i32 %27, ptr %3, align 4, !tbaa !82
  br label %28

28:                                               ; preds = %25, %24
  %.not27 = icmp eq ptr %4, null
  br i1 %.not27, label %35, label %29

29:                                               ; preds = %28
  %30 = getelementptr inbounds nuw i8, ptr %0, i64 40
  %31 = load i32, ptr %30, align 8, !tbaa !105
  br label %.sink.split

32:                                               ; preds = %23
  br i1 %.not24, label %34, label %33

33:                                               ; preds = %32
  store i32 0, ptr %3, align 4, !tbaa !82
  br label %34

34:                                               ; preds = %33, %32
  %.not25 = icmp eq ptr %4, null
  br i1 %.not25, label %35, label %.sink.split

.sink.split:                                      ; preds = %34, %29
  %.sink = phi i32 [ %31, %29 ], [ 0, %34 ]
  store i32 %.sink, ptr %4, align 4, !tbaa !82
  br label %35

35:                                               ; preds = %.sink.split, %34, %28
  ret ptr %.0.i
}